; Function Attrs: mustprogress uwtable
define void @_ZN9grpc_core15PollingResolver22OnNextResolutionLockedEv(ptr noundef nonnull align 8 dereferenceable(536) %this) local_unnamed_addr #3 align 2 personality ptr @__gxx_personality_v0 {
entry:
  %tracer_ = getelementptr inbounds i8, ptr %this, i64 112
  %0 = load ptr, ptr %tracer_, align 8
  %cmp.not = icmp eq ptr %0, null
  br i1 %cmp.not, label %if.end, label %land.rhs

land.rhs:                                         ; preds = %entry
  %value_.i = getelementptr inbounds i8, ptr %0, i64 16
  %1 = load atomic i8, ptr %value_.i monotonic, align 1
  %2 = and i8 %1, 1
  %tobool.i.i.i.not = icmp eq i8 %2, 0
  br i1 %tobool.i.i.i.not, label %if.end, label %if.then

if.then:                                          ; preds = %land.rhs
  %shutdown_ = getelementptr inbounds i8, ptr %this, i64 128
  %3 = load i8, ptr %shutdown_, align 8
  %4 = and i8 %3, 1
  %conv = zext nneg i8 %4 to i32
  tail call void (ptr, i32, i32, ptr, ...) @gpr_log(ptr noundef nonnull @.str.1, i32 noundef 123, i32 noundef 1, ptr noundef nonnull @.str.5, ptr noundef nonnull %this, i32 noundef %conv)
  br label %if.end

if.end:                                           ; preds = %entry, %if.then, %land.rhs
  %_M_engaged.i.i = getelementptr inbounds i8, ptr %this, i64 528
  %5 = load i8, ptr %_M_engaged.i.i, align 8
  %6 = and i8 %5, 1
  %tobool.i.i.not = icmp eq i8 %6, 0
  br i1 %tobool.i.i.not, label %if.end8, label %land.lhs.true

land.lhs.true:                                    ; preds = %if.end
  %shutdown_4 = getelementptr inbounds i8, ptr %this, i64 128
  %7 = load i8, ptr %shutdown_4, align 8
  %8 = and i8 %7, 1
  %tobool5.not = icmp eq i8 %8, 0
  br i1 %tobool5.not, label %_ZNSt8optionalIN17grpc_event_engine12experimental11EventEngine10TaskHandleEE5resetEv.exit, label %if.end8

_ZNSt8optionalIN17grpc_event_engine12experimental11EventEngine10TaskHandleEE5resetEv.exit: ; preds = %land.lhs.true
  store i8 0, ptr %_M_engaged.i.i, align 8
  tail call void @_ZN9grpc_core15PollingResolver20StartResolvingLockedEv(ptr noundef nonnull align 8 dereferenceable(536) %this)
  br label %if.end8

if.end8:                                          ; preds = %_ZNSt8optionalIN17grpc_event_engine12experimental11EventEngine10TaskHandleEE5resetEv.exit, %land.lhs.true, %if.end
  ret void
}